; ModuleID = 'source-C-CXX/0/13.c'
source_filename = "source-C-CXX/0/13.c"
target datalayout = "e-m:e-p270:32:32-p271:32:32-p272:64:64-i64:64-f80:128-n8:16:32:64-S128"
target triple = "x86_64-pc-linux-gnu"

@.str = private unnamed_addr constant [3 x i8] c"%d\00", align 1
@.str.1 = private unnamed_addr constant [4 x i8] c"%d\0A\00", align 1

; Function Attrs: nofree nounwind sspstrong uwtable
define dso_local void @main() local_unnamed_addr #0 {
  %1 = alloca i32, align 4
  %2 = alloca i32, align 4
  %3 = bitcast i32* %1 to i8*
  call void @llvm.lifetime.start.p0i8(i64 4, i8* nonnull %3) #4
  %4 = bitcast i32* %2 to i8*
  call void @llvm.lifetime.start.p0i8(i64 4, i8* nonnull %4) #4
  %5 = call i32 (i8*, ...) @__isoc99_scanf(i8* getelementptr inbounds ([3 x i8], [3 x i8]* @.str, i64 0, i64 0), i32* nonnull %2)
  %6 = load i32, i32* %2, align 4, !tbaa !5
  %7 = icmp slt i32 %6, 1
  br i1 %7, label %31, label %8

8:                                                ; preds = %0, %25
  %9 = phi i32 [ %28, %25 ], [ 1, %0 ]
  %10 = call i32 (i8*, ...) @__isoc99_scanf(i8* getelementptr inbounds ([3 x i8], [3 x i8]* @.str, i64 0, i64 0), i32* nonnull %1)
  %11 = load i32, i32* %1, align 4, !tbaa !5
  %12 = icmp slt i32 %11, 2
  br i1 %12, label %25, label %13

13:                                               ; preds = %8, %21
  %14 = phi i32 [ %22, %21 ], [ 0, %8 ]
  %15 = phi i32 [ %23, %21 ], [ 2, %8 ]
  %16 = srem i32 %11, %15
  %17 = icmp eq i32 %16, 0
  br i1 %17, label %18, label %21

18:                                               ; preds = %13
  %19 = call i32 @f(i32 %11, i32 %15)
  %20 = add nsw i32 %19, %14
  br label %21

21:                                               ; preds = %13, %18
  %22 = phi i32 [ %20, %18 ], [ %14, %13 ]
  %23 = add nuw i32 %15, 1
  %24 = icmp eq i32 %15, %11
  br i1 %24, label %25, label %13, !llvm.loop !9

25:                                               ; preds = %21, %8
  %26 = phi i32 [ 0, %8 ], [ %22, %21 ]
  %27 = call i32 (i8*, ...) @printf(i8* nonnull dereferenceable(1) getelementptr inbounds ([4 x i8], [4 x i8]* @.str.1, i64 0, i64 0), i32 %26)
  %28 = add nuw nsw i32 %9, 1
  %29 = load i32, i32* %2, align 4, !tbaa !5
  %30 = icmp slt i32 %9, %29
  br i1 %30, label %8, label %31, !llvm.loop !11

31:                                               ; preds = %25, %0
  call void @llvm.lifetime.end.p0i8(i64 4, i8* nonnull %4) #4
  call void @llvm.lifetime.end.p0i8(i64 4, i8* nonnull %3) #4
  ret void
}

; Function Attrs: argmemonly mustprogress nofree nosync nounwind willreturn
declare void @llvm.lifetime.start.p0i8(i64 immarg, i8* nocapture) #1

; Function Attrs: nofree nounwind
declare noundef i32 @__isoc99_scanf(i8* nocapture noundef readonly, ...) local_unnamed_addr #2

; Function Attrs: nofree nosync nounwind readnone sspstrong uwtable
define dso_local i32 @f(i32 %0, i32 %1) local_unnamed_addr #3 {
  %3 = icmp eq i32 %1, %0
  br i1 %3, label %19, label %4

4:                                                ; preds = %2
  %5 = sdiv i32 %0, %1
  %6 = icmp slt i32 %5, %1
  br i1 %6, label %19, label %7

7:                                                ; preds = %4, %15
  %8 = phi i32 [ %16, %15 ], [ 0, %4 ]
  %9 = phi i32 [ %17, %15 ], [ %1, %4 ]
  %10 = srem i32 %5, %9
  %11 = icmp eq i32 %10, 0
  br i1 %11, label %12, label %15

12:                                               ; preds = %7
  %13 = tail call i32 @f(i32 %5, i32 %9)
  %14 = add nsw i32 %13, %8
  br label %15

15:                                               ; preds = %7, %12
  %16 = phi i32 [ %14, %12 ], [ %8, %7 ]
  %17 = add i32 %9, 1
  %18 = icmp eq i32 %9, %5
  br i1 %18, label %19, label %7, !llvm.loop !12

19:                                               ; preds = %15, %4, %2
  %20 = phi i32 [ 1, %2 ], [ 0, %4 ], [ %16, %15 ]
  ret i32 %20
}

; Function Attrs: nofree nounwind
declare noundef i32 @printf(i8* nocapture noundef readonly, ...) local_unnamed_addr #2

; Function Attrs: argmemonly mustprogress nofree nosync nounwind willreturn
declare void @llvm.lifetime.end.p0i8(i64 immarg, i8* nocapture) #1


!llvm.module.flags = !{!0, !1, !2, !3}
!llvm.ident = !{!4}

!0 = !{i32 1, !"wchar_size", i32 4}
!1 = !{i32 7, !"PIC Level", i32 2}
!2 = !{i32 7, !"PIE Level", i32 2}
!3 = !{i32 7, !"uwtable", i32 1}
!4 = !{!"clang version 13.0.0"}
!5 = !{!6, !6, i64 0}
!6 = !{!"int", !7, i64 0}
!7 = !{!"omnipotent char", !8, i64 0}
!8 = !{!"Simple C/C++ TBAA"}
!9 = distinct !{!9, !10}
!10 = !{!"llvm.loop.mustprogress"}
!11 = distinct !{!11, !10}
!12 = distinct !{!12, !10}
